target datalayout = "e-m:e-p270:32:32-p271:32:32-p272:64:64-i64:64-i128:128-f80:128-n8:16:32:64-S128"
target triple = "x86_64-pc-linux-gnu"

%struct._zend_refcounted_h = type { i32, %union.anon }
%union.anon = type { i32 }
%struct._zend_string = type { %struct._zend_refcounted_h, i64, i64, [1 x i8] }

@.str.281 = private unnamed_addr constant [3 x i8] c"on\00", align 1
@.str.282 = private unnamed_addr constant [4 x i8] c"yes\00", align 1
@.str.283 = private unnamed_addr constant [5 x i8] c"true\00", align 1
@.str.284 = private unnamed_addr constant [7 x i8] c"stderr\00", align 1
@.str.285 = private unnamed_addr constant [7 x i8] c"stdout\00", align 1

; Function Attrs: inlinehint nounwind willreturn memory(read) uwtable
define available_externally i64 @atoll(ptr noundef nonnull %0) #17 {
  %2 = alloca ptr, align 8
  store ptr %0, ptr %2, align 8, !tbaa !14
  %3 = load ptr, ptr %2, align 8, !tbaa !14
  %4 = call i64 @strtoll(ptr noundef %3, ptr noundef null, i32 noundef 10) #18
  ret i64 %4
}

; Function Attrs: nounwind uwtable
define internal zeroext i8 @php_get_display_errors_mode(ptr noundef %0) #1 {
  %2 = alloca i8, align 1
  %3 = alloca ptr, align 8
  %4 = alloca i8, align 1
  %5 = alloca i32, align 4
  store ptr %0, ptr %3, align 8, !tbaa !54
  %6 = load ptr, ptr %3, align 8, !tbaa !54
  %7 = icmp ne ptr %6, null
  br i1 %7, label %9, label %8

8:                                                ; preds = %1
  store i8 1, ptr %2, align 1
  br label %105

9:                                                ; preds = %1
  %10 = load ptr, ptr %3, align 8, !tbaa !54
  %11 = getelementptr inbounds nuw %struct._zend_string, ptr %10, i32 0, i32 2
  %12 = load i64, ptr %11, align 8, !tbaa !60
  %13 = icmp eq i64 %12, 2
  br i1 %13, label %14, label %24

14:                                               ; preds = %9
  %15 = load ptr, ptr %3, align 8, !tbaa !54
  %16 = getelementptr inbounds nuw %struct._zend_string, ptr %15, i32 0, i32 3
  %17 = getelementptr inbounds [1 x i8], ptr %16, i64 0, i64 0
  %18 = load ptr, ptr %3, align 8, !tbaa !54
  %19 = getelementptr inbounds nuw %struct._zend_string, ptr %18, i32 0, i32 2
  %20 = load i64, ptr %19, align 8, !tbaa !60
  %21 = call i32 @zend_binary_strcasecmp(ptr noundef %17, i64 noundef %20, ptr noundef @.str.281, i64 noundef 2)
  %22 = icmp ne i32 %21, 0
  br i1 %22, label %24, label %23

23:                                               ; preds = %14
  store i8 1, ptr %2, align 1
  br label %105

24:                                               ; preds = %14, %9
  %25 = load ptr, ptr %3, align 8, !tbaa !54
  %26 = getelementptr inbounds nuw %struct._zend_string, ptr %25, i32 0, i32 2
  %27 = load i64, ptr %26, align 8, !tbaa !60
  %28 = icmp eq i64 %27, 3
  br i1 %28, label %29, label %39

29:                                               ; preds = %24
  %30 = load ptr, ptr %3, align 8, !tbaa !54
  %31 = getelementptr inbounds nuw %struct._zend_string, ptr %30, i32 0, i32 3
  %32 = getelementptr inbounds [1 x i8], ptr %31, i64 0, i64 0
  %33 = load ptr, ptr %3, align 8, !tbaa !54
  %34 = getelementptr inbounds nuw %struct._zend_string, ptr %33, i32 0, i32 2
  %35 = load i64, ptr %34, align 8, !tbaa !60
  %36 = call i32 @zend_binary_strcasecmp(ptr noundef %32, i64 noundef %35, ptr noundef @.str.282, i64 noundef 3)
  %37 = icmp ne i32 %36, 0
  br i1 %37, label %39, label %38

38:                                               ; preds = %29
  store i8 1, ptr %2, align 1
  br label %105

39:                                               ; preds = %29, %24
  %40 = load ptr, ptr %3, align 8, !tbaa !54
  %41 = getelementptr inbounds nuw %struct._zend_string, ptr %40, i32 0, i32 2
  %42 = load i64, ptr %41, align 8, !tbaa !60
  %43 = icmp eq i64 %42, 4
  br i1 %43, label %44, label %54

44:                                               ; preds = %39
  %45 = load ptr, ptr %3, align 8, !tbaa !54
  %46 = getelementptr inbounds nuw %struct._zend_string, ptr %45, i32 0, i32 3
  %47 = getelementptr inbounds [1 x i8], ptr %46, i64 0, i64 0
  %48 = load ptr, ptr %3, align 8, !tbaa !54
  %49 = getelementptr inbounds nuw %struct._zend_string, ptr %48, i32 0, i32 2
  %50 = load i64, ptr %49, align 8, !tbaa !60
  %51 = call i32 @zend_binary_strcasecmp(ptr noundef %47, i64 noundef %50, ptr noundef @.str.283, i64 noundef 4)
  %52 = icmp ne i32 %51, 0
  br i1 %52, label %54, label %53

53:                                               ; preds = %44
  store i8 1, ptr %2, align 1
  br label %105

54:                                               ; preds = %44, %39
  %55 = load ptr, ptr %3, align 8, !tbaa !54
  %56 = getelementptr inbounds nuw %struct._zend_string, ptr %55, i32 0, i32 2
  %57 = load i64, ptr %56, align 8, !tbaa !60
  %58 = icmp eq i64 %57, 6
  br i1 %58, label %59, label %69

59:                                               ; preds = %54
  %60 = load ptr, ptr %3, align 8, !tbaa !54
  %61 = getelementptr inbounds nuw %struct._zend_string, ptr %60, i32 0, i32 3
  %62 = getelementptr inbounds [1 x i8], ptr %61, i64 0, i64 0
  %63 = load ptr, ptr %3, align 8, !tbaa !54
  %64 = getelementptr inbounds nuw %struct._zend_string, ptr %63, i32 0, i32 2
  %65 = load i64, ptr %64, align 8, !tbaa !60
  %66 = call i32 @zend_binary_strcasecmp(ptr noundef %62, i64 noundef %65, ptr noundef @.str.284, i64 noundef 6)
  %67 = icmp ne i32 %66, 0
  br i1 %67, label %69, label %68

68:                                               ; preds = %59
  store i8 2, ptr %2, align 1
  br label %105

69:                                               ; preds = %59, %54
  %70 = load ptr, ptr %3, align 8, !tbaa !54
  %71 = getelementptr inbounds nuw %struct._zend_string, ptr %70, i32 0, i32 2
  %72 = load i64, ptr %71, align 8, !tbaa !60
  %73 = icmp eq i64 %72, 6
  br i1 %73, label %74, label %84

74:                                               ; preds = %69
  %75 = load ptr, ptr %3, align 8, !tbaa !54
  %76 = getelementptr inbounds nuw %struct._zend_string, ptr %75, i32 0, i32 3
  %77 = getelementptr inbounds [1 x i8], ptr %76, i64 0, i64 0
  %78 = load ptr, ptr %3, align 8, !tbaa !54
  %79 = getelementptr inbounds nuw %struct._zend_string, ptr %78, i32 0, i32 2
  %80 = load i64, ptr %79, align 8, !tbaa !60
  %81 = call i32 @zend_binary_strcasecmp(ptr noundef %77, i64 noundef %80, ptr noundef @.str.285, i64 noundef 6)
  %82 = icmp ne i32 %81, 0
  br i1 %82, label %84, label %83

83:                                               ; preds = %74
  store i8 1, ptr %2, align 1
  br label %105

84:                                               ; preds = %74, %69
  call void @llvm.lifetime.start.p0(i64 1, ptr %4) #18
  %85 = load ptr, ptr %3, align 8, !tbaa !54
  %86 = getelementptr inbounds nuw %struct._zend_string, ptr %85, i32 0, i32 3
  %87 = getelementptr inbounds [1 x i8], ptr %86, i64 0, i64 0
  %88 = call i64 @atoll(ptr noundef %87) #19
  %89 = trunc i64 %88 to i8
  store i8 %89, ptr %4, align 1, !tbaa !27
  %90 = load i8, ptr %4, align 1, !tbaa !27
  %91 = zext i8 %90 to i32
  %92 = icmp ne i32 %91, 0
  br i1 %92, label %93, label %102

93:                                               ; preds = %84
  %94 = load i8, ptr %4, align 1, !tbaa !27
  %95 = zext i8 %94 to i32
  %96 = icmp ne i32 %95, 1
  br i1 %96, label %97, label %102

97:                                               ; preds = %93
  %98 = load i8, ptr %4, align 1, !tbaa !27
  %99 = zext i8 %98 to i32
  %100 = icmp ne i32 %99, 2
  br i1 %100, label %101, label %102

101:                                              ; preds = %97
  store i8 1, ptr %2, align 1
  store i32 1, ptr %5, align 4
  br label %104

102:                                              ; preds = %97, %93, %84
  %103 = load i8, ptr %4, align 1, !tbaa !27
  store i8 %103, ptr %2, align 1
  store i32 1, ptr %5, align 4
  br label %104

104:                                              ; preds = %102, %101
  call void @llvm.lifetime.end.p0(i64 1, ptr %4) #18
  br label %105

105:                                              ; preds = %104, %83, %68, %53, %38, %23, %8
  %106 = load i8, ptr %2, align 1
  ret i8 %106
}