; Function Attrs: nounwind uwtable
define internal fastcc zeroext i8 @php_get_display_errors_mode(ptr noundef %0) unnamed_addr #2 {
  %.not = icmp eq ptr %0, null
  br i1 %.not, label %36, label %2

2:                                                ; preds = %1
  %3 = getelementptr inbounds nuw i8, ptr %0, i64 16
  %4 = load i64, ptr %3, align 8, !tbaa !52
  %5 = icmp eq i64 %4, 2
  br i1 %5, label %6, label %9

6:                                                ; preds = %2
  %7 = getelementptr inbounds nuw i8, ptr %0, i64 24
  %8 = tail call i32 @zend_binary_strcasecmp(ptr noundef nonnull %7, i64 noundef 2, ptr noundef nonnull @.str.281, i64 noundef 2) #28
  %.not32 = icmp eq i32 %8, 0
  br i1 %.not32, label %36, label %thread-pre-split

thread-pre-split:                                 ; preds = %6
  %.pr = load i64, ptr %3, align 8, !tbaa !52
  br label %9

9:                                                ; preds = %thread-pre-split, %2
  %10 = phi i64 [ %.pr, %thread-pre-split ], [ %4, %2 ]
  %11 = icmp eq i64 %10, 3
  br i1 %11, label %12, label %15

12:                                               ; preds = %9
  %13 = getelementptr inbounds nuw i8, ptr %0, i64 24
  %14 = tail call i32 @zend_binary_strcasecmp(ptr noundef nonnull %13, i64 noundef 3, ptr noundef nonnull @.str.282, i64 noundef 3) #28
  %.not33 = icmp eq i32 %14, 0
  br i1 %.not33, label %36, label %._crit_edge

._crit_edge:                                      ; preds = %12
  %.pre = load i64, ptr %3, align 8, !tbaa !52
  br label %15

15:                                               ; preds = %._crit_edge, %9
  %16 = phi i64 [ %.pre, %._crit_edge ], [ %10, %9 ]
  %17 = icmp eq i64 %16, 4
  br i1 %17, label %18, label %21

18:                                               ; preds = %15
  %19 = getelementptr inbounds nuw i8, ptr %0, i64 24
  %20 = tail call i32 @zend_binary_strcasecmp(ptr noundef nonnull %19, i64 noundef 4, ptr noundef nonnull @.str.283, i64 noundef 4) #28
  %.not34 = icmp eq i32 %20, 0
  br i1 %.not34, label %36, label %thread-pre-split37

thread-pre-split37:                               ; preds = %18
  %.pr38 = load i64, ptr %3, align 8, !tbaa !52
  br label %21

21:                                               ; preds = %thread-pre-split37, %15
  %22 = phi i64 [ %.pr38, %thread-pre-split37 ], [ %16, %15 ]
  %23 = icmp eq i64 %22, 6
  br i1 %23, label %24, label %.thread

24:                                               ; preds = %21
  %25 = getelementptr inbounds nuw i8, ptr %0, i64 24
  %26 = tail call i32 @zend_binary_strcasecmp(ptr noundef nonnull %25, i64 noundef 6, ptr noundef nonnull @.str.284, i64 noundef 6) #28
  %.not35 = icmp eq i32 %26, 0
  br i1 %.not35, label %36, label %27

27:                                               ; preds = %24
  %.pre40 = load i64, ptr %3, align 8, !tbaa !52
  %28 = icmp eq i64 %.pre40, 6
  br i1 %28, label %29, label %.thread

29:                                               ; preds = %27
  %30 = getelementptr inbounds nuw i8, ptr %0, i64 24
  %31 = tail call i32 @zend_binary_strcasecmp(ptr noundef nonnull %30, i64 noundef 6, ptr noundef nonnull @.str.285, i64 noundef 6) #28
  %.not36 = icmp eq i32 %31, 0
  br i1 %.not36, label %36, label %.thread

.thread:                                          ; preds = %21, %29, %27
  %32 = getelementptr inbounds nuw i8, ptr %0, i64 24
  %33 = tail call i64 @strtoll(ptr noundef nonnull captures(none) %32, ptr noundef null, i32 noundef 10) #28
  %34 = and i64 %33, 255
  %or.cond5 = icmp samesign ugt i64 %34, 2
  %35 = trunc i64 %33 to i8
  %.1 = select i1 %or.cond5, i8 1, i8 %35
  br label %36

36:                                               ; preds = %29, %24, %18, %12, %6, %1, %.thread
  %.0 = phi i8 [ %.1, %.thread ], [ 1, %1 ], [ 1, %6 ], [ 1, %12 ], [ 1, %18 ], [ 2, %24 ], [ 1, %29 ]
  ret i8 %.0
}